ccopy_reg
_reconstructor
p1
(cargparse
Namespace
p2
c__builtin__
object
p3
NtRp4
(dp5
S'num_epochs'
p6
I2000
sS'grad_clip'
p7
F5
sS'rnn_size'
p8
I16
sS'data_dir'
p9
S'data/all_multivideos'
p10
sS'learning_rate'
p11
F0.002
sS'save_dir'
p12
S'save/all_multivideos_r16_s10_b1_gru_multitimes'
p13
sS'vocab_size_act'
p14
I18
sS'batch_size'
p15
I1
sS'decay_rate'
p16
F0.999
sS'vocab_size_aho'
p17
I33
sS'vocab_size_ho'
p18
I5
sS'seq_length'
p19
I10
sS'num_layers'
p20
I1
sS'model'
p21
S'gru'
p22
sS'save_every'
p23
I1000
sS'mode'
p24
S'train'
p25
sb.